; ModuleID = '38/584.c'
source_filename = "38/584.c"
target datalayout = "e-m:e-p270:32:32-p271:32:32-p272:64:64-i64:64-f80:128-n8:16:32:64-S128"
target triple = "x86_64-pc-linux-gnu"

@.str = private unnamed_addr constant [3 x i8] c"%d\00", align 1
@.str.1 = private unnamed_addr constant [4 x i8] c"%lf\00", align 1
@.str.2 = private unnamed_addr constant [7 x i8] c"%.5lf\0A\00", align 1

; Function Attrs: noinline nounwind uwtable
define dso_local i32 @main() #0 {
  %1 = alloca i32, align 4
  %2 = alloca i32, align 4
  %3 = alloca i32, align 4
  %4 = alloca i32, align 4
  %5 = alloca i32, align 4
  %6 = alloca [100 x double], align 16
  %7 = alloca double, align 8
  %8 = alloca double, align 8
  store i32 0, i32* %1, align 4
  %9 = call i32 (i8*, ...) @__isoc99_scanf(i8* getelementptr inbounds ([3 x i8], [3 x i8]* @.str, i64 0, i64 0), i32* %2)
  store i32 0, i32* %5, align 4
  br label %10

10:                                               ; preds = %71, %0
  %11 = load i32, i32* %5, align 4
  %12 = load i32, i32* %2, align 4
  %13 = icmp slt i32 %11, %12
  br i1 %13, label %14, label %74

14:                                               ; preds = %10
  %15 = call i32 (i8*, ...) @__isoc99_scanf(i8* getelementptr inbounds ([3 x i8], [3 x i8]* @.str, i64 0, i64 0), i32* %3)
  store double 0.000000e+00, double* %7, align 8
  store i32 0, i32* %4, align 4
  br label %16

16:                                               ; preds = %31, %14
  %17 = load i32, i32* %4, align 4
  %18 = load i32, i32* %3, align 4
  %19 = icmp slt i32 %17, %18
  br i1 %19, label %20, label %34

20:                                               ; preds = %16
  %21 = load i32, i32* %4, align 4
  %22 = sext i32 %21 to i64
  %23 = getelementptr inbounds [100 x double], [100 x double]* %6, i64 0, i64 %22
  %24 = call i32 (i8*, ...) @__isoc99_scanf(i8* getelementptr inbounds ([4 x i8], [4 x i8]* @.str.1, i64 0, i64 0), double* %23)
  %25 = load i32, i32* %4, align 4
  %26 = sext i32 %25 to i64
  %27 = getelementptr inbounds [100 x double], [100 x double]* %6, i64 0, i64 %26
  %28 = load double, double* %27, align 8
  %29 = load double, double* %7, align 8
  %30 = fadd double %29, %28
  store double %30, double* %7, align 8
  br label %31

31:                                               ; preds = %20
  %32 = load i32, i32* %4, align 4
  %33 = add nsw i32 %32, 1
  store i32 %33, i32* %4, align 4
  br label %16

34:                                               ; preds = %16
  %35 = load i32, i32* %3, align 4
  %36 = sitofp i32 %35 to double
  %37 = load double, double* %7, align 8
  %38 = fdiv double %37, %36
  store double %38, double* %7, align 8
  store double 0.000000e+00, double* %8, align 8
  store i32 0, i32* %4, align 4
  br label %39

39:                                               ; preds = %59, %34
  %40 = load i32, i32* %4, align 4
  %41 = load i32, i32* %3, align 4
  %42 = icmp slt i32 %40, %41
  br i1 %42, label %43, label %62

43:                                               ; preds = %39
  %44 = load i32, i32* %4, align 4
  %45 = sext i32 %44 to i64
  %46 = getelementptr inbounds [100 x double], [100 x double]* %6, i64 0, i64 %45
  %47 = load double, double* %46, align 8
  %48 = load double, double* %7, align 8
  %49 = fsub double %47, %48
  %50 = load i32, i32* %4, align 4
  %51 = sext i32 %50 to i64
  %52 = getelementptr inbounds [100 x double], [100 x double]* %6, i64 0, i64 %51
  %53 = load double, double* %52, align 8
  %54 = load double, double* %7, align 8
  %55 = fsub double %53, %54
  %56 = fmul double %49, %55
  %57 = load double, double* %8, align 8
  %58 = fadd double %57, %56
  store double %58, double* %8, align 8
  br label %59

59:                                               ; preds = %43
  %60 = load i32, i32* %4, align 4
  %61 = add nsw i32 %60, 1
  store i32 %61, i32* %4, align 4
  br label %39

62:                                               ; preds = %39
  %63 = load i32, i32* %3, align 4
  %64 = sitofp i32 %63 to double
  %65 = load double, double* %8, align 8
  %66 = fdiv double %65, %64
  store double %66, double* %8, align 8
  %67 = load double, double* %8, align 8
  %68 = call double @sqrt(double %67) #3
  store double %68, double* %8, align 8
  %69 = load double, double* %8, align 8
  %70 = call i32 (i8*, ...) @printf(i8* getelementptr inbounds ([7 x i8], [7 x i8]* @.str.2, i64 0, i64 0), double %69)
  br label %71

71:                                               ; preds = %62
  %72 = load i32, i32* %5, align 4
  %73 = add nsw i32 %72, 1
  store i32 %73, i32* %5, align 4
  br label %10

74:                                               ; preds = %10
  ret i32 0
}

declare dso_local i32 @__isoc99_scanf(i8*, ...) #1

; Function Attrs: nounwind
declare dso_local double @sqrt(double) #2

declare dso_local i32 @printf(i8*, ...) #1


!llvm.module.flags = !{!0}
!llvm.ident = !{!1}

!0 = !{i32 1, !"wchar_size", i32 4}
!1 = !{!"clang version 10.0.0-4ubuntu1 "}
